Certificate:
    Data:
        Version: 3 (0x2)
        Serial Number: 4097 (0x1001)
    Signature Algorithm: md5WithRSAEncryption
        Issuer: C=US, ST=UT, L=SLC, O=UoU, CN=authority
        Validity
            Not Before: Mar 17 19:16:12 2025 GMT
            Not After : Mar 17 19:16:12 2026 GMT
        Subject: C=US, ST=UT, O=UoU, CN=client
        Subject Public Key Info:
            Public Key Algorithm: rsaEncryption
                RSA Public-Key: (4096 bit)
                Modulus:
                    00:d5:38:d8:0f:75:f4:9e:0f:05:1f:38:16:49:66:
                    02:c0:30:53:60:1f:3c:ae:e4:8e:76:71:c0:fb:37:
                    94:d6:fb:a0:d5:7e:45:ea:97:05:4f:de:05:bc:c1:
                    f1:7c:ca:16:c5:d7:37:5a:db:41:9d:1a:09:26:da:
                    f5:22:79:25:f0:38:38:7d:63:e2:83:7e:48:d0:00:
                    69:8e:2e:ff:9f:21:c6:eb:4a:49:e0:87:7a:33:a3:
                    f1:05:2e:bb:3b:3a:31:8e:13:c5:18:1a:2d:b2:8b:
                    b2:07:22:62:09:d2:9f:7c:a3:a6:52:c0:2a:55:c2:
                    06:1e:24:d9:d9:89:a9:1a:5e:52:e3:c8:78:94:bf:
                    e0:6d:61:b7:23:e1:f7:c9:51:c0:b7:38:cb:76:51:
                    f3:38:68:22:e3:57:34:26:6e:b7:f7:ae:ab:e7:7b:
                    d7:a2:5f:df:5a:4f:51:4a:fd:af:1a:90:f1:e1:7e:
                    12:01:77:1b:32:71:44:93:d5:0d:6e:93:ba:1c:d1:
                    f0:e3:a7:60:3c:bb:96:f9:83:9c:dd:de:c9:4d:98:
                    a8:65:e5:69:d0:a9:68:ad:f3:9f:11:8a:49:b2:06:
                    bb:f5:f9:51:94:9c:d9:de:bd:3f:b6:5b:64:26:a7:
                    e0:dd:f4:19:21:c4:57:7f:c4:76:ca:e6:15:74:66:
                    a7:0f:6c:2d:76:98:be:c7:56:2c:ee:c0:29:91:cd:
                    f9:7a:e7:22:69:75:dc:22:75:9a:e6:65:ff:f1:10:
                    55:48:2b:21:8b:c5:f8:5f:e6:be:9f:f1:33:ab:75:
                    7a:6b:a2:3c:22:50:16:9a:20:ba:28:df:55:83:6a:
                    33:86:77:2e:d1:11:cd:fd:18:92:e2:b0:64:0a:c5:
                    52:35:5b:ae:57:50:4a:bb:4e:17:d6:e2:3c:16:77:
                    1b:d7:4c:14:33:f3:d9:36:e5:87:1a:37:48:78:23:
                    fa:2f:f2:40:b2:ce:38:d9:44:4a:54:f7:5f:f2:af:
                    67:12:fd:96:3a:08:20:e7:01:90:d5:c3:0b:be:77:
                    8e:39:6a:0a:26:b0:a7:a0:b7:b2:10:3c:99:6d:cb:
                    3f:03:12:a4:db:fe:62:f4:bc:0b:14:16:87:b1:49:
                    0b:50:c5:45:29:7d:c6:9c:ef:85:94:db:51:d3:dd:
                    aa:48:57:bb:21:7a:94:84:69:8c:f2:85:a3:c3:1a:
                    9a:70:e4:0c:5f:55:7c:8c:62:e7:ff:47:90:9b:90:
                    4b:b6:1b:df:9b:97:b4:ed:5b:ce:19:5a:0f:e1:0b:
                    19:f4:75:3a:b5:05:af:d2:22:ca:21:7e:51:d7:a9:
                    67:cf:e1:78:5d:65:5a:09:a6:c9:f6:f5:eb:43:e1:
                    6e:d8:2d
                Exponent: 65537 (0x10001)
        X509v3 extensions:
            X509v3 Basic Constraints: 
                CA:FALSE
            Netscape Comment: 
                OpenSSL Generated Certificate
            X509v3 Subject Key Identifier: 
                27:26:CA:D2:11:95:B4:C7:A6:25:8C:DC:49:77:7E:2C:6E:46:73:C5
            X509v3 Authority Key Identifier: 
                DirName:/C=US/ST=UT/L=SLC/O=UoU/CN=authority
                serial:ED:E5:77:53:0E:E1:1E:2F

    Signature Algorithm: md5WithRSAEncryption
         83:96:1e:d9:89:2f:9f:48:d7:0e:bc:86:fb:28:26:fe:68:7a:
         d8:ac:35:e1:1e:92:ec:da:5b:6a:28:d4:84:e1:13:68:11:9e:
         c4:58:e8:65:be:8d:8e:44:e5:cb:36:89:18:9d:7e:8f:c3:06:
         30:2f:de:b7:69:c7:1d:5b:51:4a:7a:c1:83:d9:8b:61:ef:1c:
         51:2a:37:3b:7c:35:d5:45:11:16:15:33:ec:3a:95:50:22:5c:
         8c:76:93:b5:fb:6b:92:69:52:51:d6:cd:82:9f:ee:b4:03:b0:
         d6:e8:e7:34:70:93:e5:06:9e:dd:2b:4a:9f:4e:df:9f:ef:e3:
         62:dc:be:a6:22:c9:b4:3a:3b:48:b6:50:2a:1e:7c:f1:b1:fd:
         08:f4:30:c0:2a:26:de:42:3b:16:99:b2:8a:b4:ca:a5:52:1c:
         ad:a4:3f:b2:06:2f:97:55:5a:ca:f5:e5:79:3c:ce:1b:8a:75:
         0b:df:3e:d3:f5:89:4d:6e:be:3b:a3:47:ec:78:89:dd:04:5f:
         69:e7:a4:dc:2c:40:fc:8e:fa:f0:13:24:44:60:8d:19:30:b1:
         c4:9a:b3:44:e1:09:15:dc:27:0e:ac:12:b5:e5:8d:7e:d8:80:
         c5:d4:87:73:af:1d:56:1c:6b:78:bc:23:b8:4c:5e:25:ee:67:
         40:fc:e5:4c:00:63:f6:05:e8:c6:9a:be:79:3c:0b:ac:61:3f:
         df:e2:f8:02:52:22:49:11:61:e1:76:b4:8e:59:db:d6:73:c0:
         05:92:6f:79:8c:d8:08:ef:82:83:df:ab:f0:2c:03:64:a7:3d:
         69:79:a5:d3:ea:b4:be:91:47:48:eb:2b:05:1e:d4:23:c9:50:
         df:54:a3:8d:52:f5:fa:47:e9:61:d5:06:a7:1b:32:43:de:3c:
         85:aa:78:7e:94:a5:f4:13:6a:c8:3e:70:53:87:52:5e:81:b2:
         1d:55:40:b6:d9:78:3f:bd:07:51:2a:2b:ff:2f:36:22:65:b1:
         1a:f0:f3:2c:23:95:59:91:9d:40:24:e1:12:fb:43:f7:f6:93:
         88:1b:5d:e5:0e:a5:d2:54:63:fe:e4:9e:74:d1:d7:a6:88:02:
         02:b3:e3:8f:a0:f5:18:5a:2e:30:db:1e:13:99:53:7d:9c:f6:
         27:2d:40:93:c4:2d:0d:ab:c1:7b:06:94:0c:5f:ab:b1:f6:47:
         f6:c6:73:cc:5e:c7:5d:e9:75:d9:75:6b:1e:7f:9d:d7:97:a3:
         88:8b:45:60:b4:e4:f0:72:23:fc:3a:5b:5d:23:cd:6a:d6:96:
         25:c4:ac:80:d6:5b:85:80:46:1e:db:64:75:ef:99:d2:68:6e:
         74:ac:cb:2f:12:9a:a9:aa
-----BEGIN CERTIFICATE-----
MIIFwTCCA6mgAwIBAgICEAEwDQYJKoZIhvcNAQEEBQAwSjELMAkGA1UEBhMCVVMx
CzAJBgNVBAgMAlVUMQwwCgYDVQQHDANTTEMxDDAKBgNVBAoMA1VvVTESMBAGA1UE
AwwJYXV0aG9yaXR5MB4XDTI1MDMxNzE5MTYxMloXDTI2MDMxNzE5MTYxMlowOTEL
MAkGA1UEBhMCVVMxCzAJBgNVBAgMAlVUMQwwCgYDVQQKDANVb1UxDzANBgNVBAMM
BmNsaWVudDCCAiIwDQYJKoZIhvcNAQEBBQADggIPADCCAgoCggIBANU42A919J4P
BR84FklmAsAwU2AfPK7kjnZxwPs3lNb7oNV+ReqXBU/eBbzB8XzKFsXXN1rbQZ0a
CSba9SJ5JfA4OH1j4oN+SNAAaY4u/58hxutKSeCHejOj8QUuuzs6MY4TxRgaLbKL
sgciYgnSn3yjplLAKlXCBh4k2dmJqRpeUuPIeJS/4G1htyPh98lRwLc4y3ZR8zho
IuNXNCZut/euq+d716Jf31pPUUr9rxqQ8eF+EgF3GzJxRJPVDW6TuhzR8OOnYDy7
lvmDnN3eyU2YqGXladCpaK3znxGKSbIGu/X5UZSc2d69P7ZbZCan4N30GSHEV3/E
dsrmFXRmpw9sLXaYvsdWLO7AKZHN+XrnIml13CJ1muZl//EQVUgrIYvF+F/mvp/x
M6t1emuiPCJQFpoguijfVYNqM4Z3LtERzf0YkuKwZArFUjVbrldQSrtOF9biPBZ3
G9dMFDPz2Tblhxo3SHgj+i/yQLLOONlESlT3X/KvZxL9ljoIIOcBkNXDC753jjlq
Ciawp6C3shA8mW3LPwMSpNv+YvS8CxQWh7FJC1DFRSl9xpzvhZTbUdPdqkhXuyF6
lIRpjPKFo8MamnDkDF9VfIxi5/9HkJuQS7Yb35uXtO1bzhlaD+ELGfR1OrUFr9Ii
yiF+UdepZ8/heF1lWgmmyfb160PhbtgtAgMBAAGjgcEwgb4wCQYDVR0TBAIwADAs
BglghkgBhvhCAQ0EHxYdT3BlblNTTCBHZW5lcmF0ZWQgQ2VydGlmaWNhdGUwHQYD
VR0OBBYEFCcmytIRlbTHpiWM3El3fixuRnPFMGQGA1UdIwRdMFuhTqRMMEoxCzAJ
BgNVBAYTAlVTMQswCQYDVQQIDAJVVDEMMAoGA1UEBwwDU0xDMQwwCgYDVQQKDANV
b1UxEjAQBgNVBAMMCWF1dGhvcml0eYIJAO3ld1MO4R4vMA0GCSqGSIb3DQEBBAUA
A4ICAQCDlh7ZiS+fSNcOvIb7KCb+aHrYrDXhHpLs2ltqKNSE4RNoEZ7EWOhlvo2O
ROXLNokYnX6PwwYwL963accdW1FKesGD2Yth7xxRKjc7fDXVRREWFTPsOpVQIlyM
dpO1+2uSaVJR1s2Cn+60A7DW6Oc0cJPlBp7dK0qfTt+f7+Ni3L6mIsm0OjtItlAq
Hnzxsf0I9DDAKibeQjsWmbKKtMqlUhytpD+yBi+XVVrK9eV5PM4binUL3z7T9YlN
br47o0fseIndBF9p56TcLED8jvrwEyREYI0ZMLHEmrNE4QkV3CcOrBK15Y1+2IDF
1Idzrx1WHGt4vCO4TF4l7mdA/OVMAGP2BejGmr55PAusYT/f4vgCUiJJEWHhdrSO
WdvWc8AFkm95jNgI74KD36vwLANkpz1peaXT6rS+kUdI6ysFHtQjyVDfVKONUvX6
R+lh1QanGzJD3jyFqnh+lKX0E2rIPnBTh1JegbIdVUC22Xg/vQdRKiv/LzYiZbEa
8PMsI5VZkZ1AJOES+0P39pOIG13lDqXSVGP+5J500demiAICs+OPoPUYWi4w2x4T
mVN9nPYnLUCTxC0Nq8F7BpQMX6ux9kf2xnPMXsdd6XXZdWsef53Xl6OIi0VgtOTw
ciP8OltdI81q1pYlxKyA1luFgEYe22R175nSaG50rMsvEpqpqg==
-----END CERTIFICATE-----
