Certificate:
    Data:
        Version: 3 (0x2)
        Serial Number: 4096 (0x1000)
    Signature Algorithm: md5WithRSAEncryption
        Issuer: C=US, ST=UT, L=SLC, O=UoU, CN=authority
        Validity
            Not Before: Mar 17 19:15:15 2025 GMT
            Not After : Mar 17 19:15:15 2026 GMT
        Subject: C=US, ST=UT, O=UoU, CN=server
        Subject Public Key Info:
            Public Key Algorithm: rsaEncryption
                RSA Public-Key: (4096 bit)
                Modulus:
                    00:a3:e4:45:82:c1:4a:f5:05:28:99:fd:64:0f:2f:
                    9a:f3:07:b9:94:16:a6:d5:c6:0d:8e:7e:8c:59:30:
                    dc:14:9c:2c:79:19:41:54:27:c1:6f:22:a3:05:ad:
                    82:91:7c:ac:40:21:68:6e:92:6b:b9:94:f7:27:6c:
                    e8:06:10:00:14:b5:20:8f:b4:86:5f:f4:c3:b2:f4:
                    bf:8b:20:ae:ae:19:dc:5e:9e:cf:42:c4:1f:e4:ff:
                    dd:b0:ca:b4:8f:7b:a4:24:45:e7:84:82:ff:95:4e:
                    90:c1:65:95:2e:13:55:07:5a:41:72:cd:32:30:54:
                    03:b9:47:7c:79:32:66:18:e7:44:25:55:3e:63:73:
                    15:c7:ed:79:66:d3:e7:89:03:c8:5a:31:2f:bb:cb:
                    b1:06:09:38:cf:b7:bc:7a:c3:d1:15:65:24:e9:eb:
                    00:fb:e8:7c:3b:a7:21:84:1a:f4:f3:27:9e:ee:a0:
                    a2:94:47:b2:8f:e8:45:6a:fa:75:80:c8:64:cd:63:
                    6e:97:0e:f6:10:ea:5e:ab:30:ff:3a:95:27:56:38:
                    78:6e:96:e2:c1:37:a5:12:f2:85:f3:77:da:39:b9:
                    b9:a0:a7:93:e2:33:67:29:38:bb:49:90:4c:43:b0:
                    d8:27:1a:ab:06:1d:89:3d:2c:80:ef:e5:cc:04:ca:
                    07:aa:a2:bb:be:d3:b7:7c:5b:42:a2:65:39:ec:3e:
                    2c:99:f0:96:4c:fe:fd:1b:03:b2:e9:35:35:e2:73:
                    b0:cf:b4:38:40:af:4d:2b:fa:b2:d0:ba:39:7f:0b:
                    29:73:7e:7b:15:36:ba:03:23:80:ce:99:8a:9b:61:
                    95:00:a6:9c:1e:b8:be:2f:95:56:75:ce:84:32:c7:
                    cc:64:ac:e6:ce:37:e2:dd:e0:86:8e:15:1c:ce:bd:
                    c0:be:04:86:2c:94:0e:5c:e3:49:da:63:b3:45:2c:
                    64:7c:c8:04:23:bd:c8:31:c0:32:0e:99:6e:97:da:
                    be:42:cb:c3:6f:2e:5b:ed:58:08:59:b2:c4:e3:04:
                    bd:b1:d4:41:b5:e4:c5:f7:6a:1a:a3:79:6c:40:2e:
                    3d:31:52:2e:c3:13:a6:d8:38:3b:a4:7f:3c:a2:4f:
                    76:06:94:23:2a:60:2c:7f:ef:d2:86:67:f0:89:91:
                    5d:f4:d1:82:6f:15:37:1f:60:df:23:55:b3:c6:f6:
                    fd:ce:f0:a9:53:b7:fe:29:a7:51:8e:44:c3:83:b4:
                    51:d0:0b:a9:f2:d7:40:85:48:94:86:fe:f4:24:d1:
                    45:20:46:6e:38:67:b2:fd:25:9b:c4:51:d0:39:3c:
                    3b:96:df:c4:eb:f2:11:f4:b0:bc:98:5b:a1:76:6e:
                    34:69:4f
                Exponent: 65537 (0x10001)
        X509v3 extensions:
            X509v3 Basic Constraints: 
                CA:FALSE
            Netscape Comment: 
                OpenSSL Generated Certificate
            X509v3 Subject Key Identifier: 
                DA:70:52:D9:2A:39:25:DD:0D:C8:06:D7:52:A0:E8:84:D0:A5:6A:CA
            X509v3 Authority Key Identifier: 
                DirName:/C=US/ST=UT/L=SLC/O=UoU/CN=authority
                serial:ED:E5:77:53:0E:E1:1E:2F

    Signature Algorithm: md5WithRSAEncryption
         3a:58:09:c9:0f:7b:f6:e3:95:ad:0c:c2:b2:8c:cc:4f:fe:0b:
         8b:e8:03:70:a3:cc:81:7d:dc:aa:96:d3:c3:b2:2a:66:35:8a:
         38:1c:b3:10:fd:31:d5:76:5e:8c:e8:ab:87:a5:fa:0a:25:7c:
         bd:67:f4:60:ba:4f:a1:c0:85:ad:af:5f:f8:ef:68:17:23:cf:
         dd:dc:50:65:11:0d:20:35:10:26:a5:69:d0:41:df:36:f0:bc:
         99:ea:cd:ea:59:79:96:e0:1d:64:41:0f:93:5f:91:17:3c:21:
         0c:80:a6:0e:05:7d:a8:e2:e7:37:9b:73:47:60:fa:80:9e:9e:
         37:d0:62:cf:c9:4b:55:9c:e9:bd:8e:26:a2:94:37:f7:91:b9:
         b4:81:9f:dd:0b:7c:0f:dc:d6:3d:a4:e0:39:c6:ce:10:fa:9e:
         80:3a:c5:92:33:6d:a7:eb:e9:88:c6:af:fb:60:9b:36:84:b2:
         79:66:88:1a:21:73:00:e6:80:0d:3e:1d:54:4c:4c:b9:6f:d7:
         59:8a:d5:8e:f4:a4:fc:7c:d2:a4:9f:c4:0f:a2:d4:72:46:f1:
         9d:a3:d8:66:1e:ad:a4:25:c4:9e:31:30:bb:01:8f:46:61:10:
         b3:f4:dc:4e:d8:66:e7:71:73:8a:19:b4:70:3a:cf:e3:53:3c:
         4b:7e:ea:98:15:6a:cb:9f:bb:a6:f4:39:f5:3a:cb:96:f6:42:
         b7:26:2f:19:03:16:92:7b:7e:36:48:01:a6:df:a7:7c:80:1a:
         6c:38:29:f4:45:d1:6c:6e:49:0e:09:39:b7:2a:5c:75:f3:90:
         56:70:df:5b:02:7e:35:96:ca:b5:4b:57:e4:c2:e6:9f:97:0d:
         27:8d:68:9e:2a:b9:0b:ca:a0:31:fe:9f:53:3d:78:9c:14:68:
         ce:43:51:1f:e8:a5:7e:57:ab:99:e0:b7:b0:98:9f:d2:35:63:
         d1:f2:ae:a8:d5:24:c8:5c:89:d3:4e:b2:da:8e:e5:6d:e1:61:
         6e:df:20:f7:d5:c5:a9:71:a8:9b:b5:33:88:cf:63:e2:37:3e:
         33:46:0c:45:ea:93:46:49:a4:e4:6d:84:d5:50:fe:9a:fd:20:
         52:f3:a6:f1:3e:d4:cf:25:5d:ac:5f:58:92:85:2d:a9:54:be:
         43:b3:64:00:5a:81:b6:7e:e5:51:2c:f4:3a:e7:e9:87:11:2a:
         43:66:35:bc:a7:b0:7b:ae:07:b2:06:9e:e3:f5:af:c4:20:9e:
         84:e6:51:43:fc:5c:b2:84:92:6c:15:60:cf:23:81:cf:f9:0d:
         8f:5e:dc:86:c2:c7:98:cb:2a:f5:58:1b:10:67:48:a4:19:06:
         21:59:e6:31:82:ce:80:c8
-----BEGIN CERTIFICATE-----
MIIFwTCCA6mgAwIBAgICEAAwDQYJKoZIhvcNAQEEBQAwSjELMAkGA1UEBhMCVVMx
CzAJBgNVBAgMAlVUMQwwCgYDVQQHDANTTEMxDDAKBgNVBAoMA1VvVTESMBAGA1UE
AwwJYXV0aG9yaXR5MB4XDTI1MDMxNzE5MTUxNVoXDTI2MDMxNzE5MTUxNVowOTEL
MAkGA1UEBhMCVVMxCzAJBgNVBAgMAlVUMQwwCgYDVQQKDANVb1UxDzANBgNVBAMM
BnNlcnZlcjCCAiIwDQYJKoZIhvcNAQEBBQADggIPADCCAgoCggIBAKPkRYLBSvUF
KJn9ZA8vmvMHuZQWptXGDY5+jFkw3BScLHkZQVQnwW8iowWtgpF8rEAhaG6Sa7mU
9yds6AYQABS1II+0hl/0w7L0v4sgrq4Z3F6ez0LEH+T/3bDKtI97pCRF54SC/5VO
kMFllS4TVQdaQXLNMjBUA7lHfHkyZhjnRCVVPmNzFcfteWbT54kDyFoxL7vLsQYJ
OM+3vHrD0RVlJOnrAPvofDunIYQa9PMnnu6gopRHso/oRWr6dYDIZM1jbpcO9hDq
Xqsw/zqVJ1Y4eG6W4sE3pRLyhfN32jm5uaCnk+IzZyk4u0mQTEOw2CcaqwYdiT0s
gO/lzATKB6qiu77Tt3xbQqJlOew+LJnwlkz+/RsDsuk1NeJzsM+0OECvTSv6stC6
OX8LKXN+exU2ugMjgM6ZipthlQCmnB64vi+VVnXOhDLHzGSs5s434t3gho4VHM69
wL4EhiyUDlzjSdpjs0UsZHzIBCO9yDHAMg6ZbpfavkLLw28uW+1YCFmyxOMEvbHU
QbXkxfdqGqN5bEAuPTFSLsMTptg4O6R/PKJPdgaUIypgLH/v0oZn8ImRXfTRgm8V
Nx9g3yNVs8b2/c7wqVO3/imnUY5Ew4O0UdALqfLXQIVIlIb+9CTRRSBGbjhnsv0l
m8RR0Dk8O5bfxOvyEfSwvJhboXZuNGlPAgMBAAGjgcEwgb4wCQYDVR0TBAIwADAs
BglghkgBhvhCAQ0EHxYdT3BlblNTTCBHZW5lcmF0ZWQgQ2VydGlmaWNhdGUwHQYD
VR0OBBYEFNpwUtkqOSXdDcgG11Kg6ITQpWrKMGQGA1UdIwRdMFuhTqRMMEoxCzAJ
BgNVBAYTAlVTMQswCQYDVQQIDAJVVDEMMAoGA1UEBwwDU0xDMQwwCgYDVQQKDANV
b1UxEjAQBgNVBAMMCWF1dGhvcml0eYIJAO3ld1MO4R4vMA0GCSqGSIb3DQEBBAUA
A4ICAQA6WAnJD3v245WtDMKyjMxP/guL6ANwo8yBfdyqltPDsipmNYo4HLMQ/THV
dl6M6KuHpfoKJXy9Z/Rguk+hwIWtr1/472gXI8/d3FBlEQ0gNRAmpWnQQd828LyZ
6s3qWXmW4B1kQQ+TX5EXPCEMgKYOBX2o4uc3m3NHYPqAnp430GLPyUtVnOm9jiai
lDf3kbm0gZ/dC3wP3NY9pOA5xs4Q+p6AOsWSM22n6+mIxq/7YJs2hLJ5ZogaIXMA
5oANPh1UTEy5b9dZitWO9KT8fNKkn8QPotRyRvGdo9hmHq2kJcSeMTC7AY9GYRCz
9NxO2GbncXOKGbRwOs/jUzxLfuqYFWrLn7um9Dn1OsuW9kK3Ji8ZAxaSe342SAGm
36d8gBpsOCn0RdFsbkkOCTm3Klx185BWcN9bAn41lsq1S1fkwuaflw0njWieKrkL
yqAx/p9TPXicFGjOQ1Ef6KV+V6uZ4LewmJ/SNWPR8q6o1STIXInTTrLajuVt4WFu
3yD31cWpcaibtTOIz2PiNz4zRgxF6pNGSaTkbYTVUP6a/SBS86bxPtTPJV2sX1iS
hS2pVL5Ds2QAWoG2fuVRLPQ65+mHESpDZjW8p7B7rgeyBp7j9a/EIJ6E5lFD/Fyy
hJJsFWDPI4HP+Q2PXtyGwseYyyr1WBsQZ0ikGQYhWeYxgs6AyA==
-----END CERTIFICATE-----
